; ModuleID = '2/284.c'
source_filename = "2/284.c"
target datalayout = "e-m:e-p270:32:32-p271:32:32-p272:64:64-i64:64-f80:128-n8:16:32:64-S128"
target triple = "x86_64-pc-linux-gnu"

%struct.book = type { i64, [26 x i8] }

@.str = private unnamed_addr constant [3 x i8] c"%d\00", align 1
@.str.1 = private unnamed_addr constant [5 x i8] c"%ld \00", align 1
@book = common dso_local global [1000 x %struct.book] zeroinitializer, align 16
@.str.2 = private unnamed_addr constant [3 x i8] c"%s\00", align 1
@.str.3 = private unnamed_addr constant [4 x i8] c"%c\0A\00", align 1
@.str.4 = private unnamed_addr constant [4 x i8] c"%d\0A\00", align 1
@.str.5 = private unnamed_addr constant [5 x i8] c"%ld\0A\00", align 1

; Function Attrs: noinline nounwind uwtable
define dso_local i32 @main() #0 {
  %1 = alloca i32, align 4
  %2 = alloca i32, align 4
  %3 = alloca i32, align 4
  %4 = alloca i32, align 4
  %5 = alloca i32, align 4
  %6 = alloca [26 x i32], align 16
  %7 = alloca i32, align 4
  %8 = alloca i8, align 1
  store i32 0, i32* %1, align 4
  %9 = bitcast [26 x i32]* %6 to i8*
  call void @llvm.memset.p0i8.i64(i8* align 16 %9, i8 0, i64 104, i1 false)
  %10 = call i32 (i8*, ...) @__isoc99_scanf(i8* getelementptr inbounds ([3 x i8], [3 x i8]* @.str, i64 0, i64 0), i32* %2)
  store i32 0, i32* %3, align 4
  br label %11

11:                                               ; preds = %27, %0
  %12 = load i32, i32* %3, align 4
  %13 = load i32, i32* %2, align 4
  %14 = icmp slt i32 %12, %13
  br i1 %14, label %15, label %30

15:                                               ; preds = %11
  %16 = load i32, i32* %3, align 4
  %17 = sext i32 %16 to i64
  %18 = getelementptr inbounds [1000 x %struct.book], [1000 x %struct.book]* @book, i64 0, i64 %17
  %19 = getelementptr inbounds %struct.book, %struct.book* %18, i32 0, i32 0
  %20 = call i32 (i8*, ...) @__isoc99_scanf(i8* getelementptr inbounds ([5 x i8], [5 x i8]* @.str.1, i64 0, i64 0), i64* %19)
  %21 = load i32, i32* %3, align 4
  %22 = sext i32 %21 to i64
  %23 = getelementptr inbounds [1000 x %struct.book], [1000 x %struct.book]* @book, i64 0, i64 %22
  %24 = getelementptr inbounds %struct.book, %struct.book* %23, i32 0, i32 1
  %25 = getelementptr inbounds [26 x i8], [26 x i8]* %24, i64 0, i64 0
  %26 = call i32 (i8*, ...) @__isoc99_scanf(i8* getelementptr inbounds ([3 x i8], [3 x i8]* @.str.2, i64 0, i64 0), i8* %25)
  br label %27

27:                                               ; preds = %15
  %28 = load i32, i32* %3, align 4
  %29 = add nsw i32 %28, 1
  store i32 %29, i32* %3, align 4
  br label %11

30:                                               ; preds = %11
  store i32 0, i32* %3, align 4
  br label %31

31:                                               ; preds = %66, %30
  %32 = load i32, i32* %3, align 4
  %33 = load i32, i32* %2, align 4
  %34 = icmp slt i32 %32, %33
  br i1 %34, label %35, label %69

35:                                               ; preds = %31
  %36 = load i32, i32* %3, align 4
  %37 = sext i32 %36 to i64
  %38 = getelementptr inbounds [1000 x %struct.book], [1000 x %struct.book]* @book, i64 0, i64 %37
  %39 = getelementptr inbounds %struct.book, %struct.book* %38, i32 0, i32 1
  %40 = getelementptr inbounds [26 x i8], [26 x i8]* %39, i64 0, i64 0
  %41 = call i64 @strlen(i8* %40) #4
  %42 = trunc i64 %41 to i32
  store i32 %42, i32* %5, align 4
  store i32 0, i32* %4, align 4
  br label %43

43:                                               ; preds = %62, %35
  %44 = load i32, i32* %4, align 4
  %45 = load i32, i32* %5, align 4
  %46 = icmp slt i32 %44, %45
  br i1 %46, label %47, label %65

47:                                               ; preds = %43
  %48 = load i32, i32* %3, align 4
  %49 = sext i32 %48 to i64
  %50 = getelementptr inbounds [1000 x %struct.book], [1000 x %struct.book]* @book, i64 0, i64 %49
  %51 = getelementptr inbounds %struct.book, %struct.book* %50, i32 0, i32 1
  %52 = load i32, i32* %4, align 4
  %53 = sext i32 %52 to i64
  %54 = getelementptr inbounds [26 x i8], [26 x i8]* %51, i64 0, i64 %53
  %55 = load i8, i8* %54, align 1
  %56 = sext i8 %55 to i32
  %57 = sub nsw i32 %56, 65
  %58 = sext i32 %57 to i64
  %59 = getelementptr inbounds [26 x i32], [26 x i32]* %6, i64 0, i64 %58
  %60 = load i32, i32* %59, align 4
  %61 = add nsw i32 %60, 1
  store i32 %61, i32* %59, align 4
  br label %62

62:                                               ; preds = %47
  %63 = load i32, i32* %4, align 4
  %64 = add nsw i32 %63, 1
  store i32 %64, i32* %4, align 4
  br label %43

65:                                               ; preds = %43
  br label %66

66:                                               ; preds = %65
  %67 = load i32, i32* %3, align 4
  %68 = add nsw i32 %67, 1
  store i32 %68, i32* %3, align 4
  br label %31

69:                                               ; preds = %31
  store i32 0, i32* %7, align 4
  store i8 65, i8* %8, align 1
  store i32 0, i32* %3, align 4
  br label %70

70:                                               ; preds = %89, %69
  %71 = load i32, i32* %3, align 4
  %72 = icmp slt i32 %71, 26
  br i1 %72, label %73, label %92

73:                                               ; preds = %70
  %74 = load i32, i32* %3, align 4
  %75 = sext i32 %74 to i64
  %76 = getelementptr inbounds [26 x i32], [26 x i32]* %6, i64 0, i64 %75
  %77 = load i32, i32* %76, align 4
  %78 = load i32, i32* %7, align 4
  %79 = icmp sgt i32 %77, %78
  br i1 %79, label %80, label %88

80:                                               ; preds = %73
  %81 = load i32, i32* %3, align 4
  %82 = sext i32 %81 to i64
  %83 = getelementptr inbounds [26 x i32], [26 x i32]* %6, i64 0, i64 %82
  %84 = load i32, i32* %83, align 4
  store i32 %84, i32* %7, align 4
  %85 = load i32, i32* %3, align 4
  %86 = add nsw i32 %85, 65
  %87 = trunc i32 %86 to i8
  store i8 %87, i8* %8, align 1
  br label %88

88:                                               ; preds = %80, %73
  br label %89

89:                                               ; preds = %88
  %90 = load i32, i32* %3, align 4
  %91 = add nsw i32 %90, 1
  store i32 %91, i32* %3, align 4
  br label %70

92:                                               ; preds = %70
  %93 = load i8, i8* %8, align 1
  %94 = sext i8 %93 to i32
  %95 = call i32 (i8*, ...) @printf(i8* getelementptr inbounds ([4 x i8], [4 x i8]* @.str.3, i64 0, i64 0), i32 %94)
  %96 = load i32, i32* %7, align 4
  %97 = call i32 (i8*, ...) @printf(i8* getelementptr inbounds ([4 x i8], [4 x i8]* @.str.4, i64 0, i64 0), i32 %96)
  store i32 0, i32* %3, align 4
  br label %98

98:                                               ; preds = %139, %92
  %99 = load i32, i32* %3, align 4
  %100 = load i32, i32* %2, align 4
  %101 = icmp slt i32 %99, %100
  br i1 %101, label %102, label %142

102:                                              ; preds = %98
  store i32 0, i32* %4, align 4
  br label %103

103:                                              ; preds = %135, %102
  %104 = load i32, i32* %4, align 4
  %105 = load i32, i32* %5, align 4
  %106 = icmp slt i32 %104, %105
  br i1 %106, label %107, label %138

107:                                              ; preds = %103
  %108 = load i32, i32* %3, align 4
  %109 = sext i32 %108 to i64
  %110 = getelementptr inbounds [1000 x %struct.book], [1000 x %struct.book]* @book, i64 0, i64 %109
  %111 = getelementptr inbounds %struct.book, %struct.book* %110, i32 0, i32 1
  %112 = getelementptr inbounds [26 x i8], [26 x i8]* %111, i64 0, i64 0
  %113 = call i64 @strlen(i8* %112) #4
  %114 = trunc i64 %113 to i32
  store i32 %114, i32* %5, align 4
  %115 = load i32, i32* %3, align 4
  %116 = sext i32 %115 to i64
  %117 = getelementptr inbounds [1000 x %struct.book], [1000 x %struct.book]* @book, i64 0, i64 %116
  %118 = getelementptr inbounds %struct.book, %struct.book* %117, i32 0, i32 1
  %119 = load i32, i32* %4, align 4
  %120 = sext i32 %119 to i64
  %121 = getelementptr inbounds [26 x i8], [26 x i8]* %118, i64 0, i64 %120
  %122 = load i8, i8* %121, align 1
  %123 = sext i8 %122 to i32
  %124 = load i8, i8* %8, align 1
  %125 = sext i8 %124 to i32
  %126 = icmp eq i32 %123, %125
  br i1 %126, label %127, label %134

127:                                              ; preds = %107
  %128 = load i32, i32* %3, align 4
  %129 = sext i32 %128 to i64
  %130 = getelementptr inbounds [1000 x %struct.book], [1000 x %struct.book]* @book, i64 0, i64 %129
  %131 = getelementptr inbounds %struct.book, %struct.book* %130, i32 0, i32 0
  %132 = load i64, i64* %131, align 8
  %133 = call i32 (i8*, ...) @printf(i8* getelementptr inbounds ([5 x i8], [5 x i8]* @.str.5, i64 0, i64 0), i64 %132)
  br label %134

134:                                              ; preds = %127, %107
  br label %135

135:                                              ; preds = %134
  %136 = load i32, i32* %4, align 4
  %137 = add nsw i32 %136, 1
  store i32 %137, i32* %4, align 4
  br label %103

138:                                              ; preds = %103
  br label %139

139:                                              ; preds = %138
  %140 = load i32, i32* %3, align 4
  %141 = add nsw i32 %140, 1
  store i32 %141, i32* %3, align 4
  br label %98

142:                                              ; preds = %98
  ret i32 0
}

; Function Attrs: argmemonly nounwind willreturn
declare void @llvm.memset.p0i8.i64(i8* nocapture writeonly, i8, i64, i1 immarg) #1

declare dso_local i32 @__isoc99_scanf(i8*, ...) #2

; Function Attrs: nounwind readonly
declare dso_local i64 @strlen(i8*) #3

declare dso_local i32 @printf(i8*, ...) #2


!llvm.module.flags = !{!0}
!llvm.ident = !{!1}

!0 = !{i32 1, !"wchar_size", i32 4}
!1 = !{!"clang version 10.0.0-4ubuntu1 "}
